target datalayout = "e-m:e-p270:32:32-p271:32:32-p272:64:64-i64:64-i128:128-f80:128-n8:16:32:64-S128"
target triple = "x86_64-pc-linux-gnu"

%"class.llvm::StringRef" = type { ptr, i64 }
%"struct.llvm::SpillPlacement::BlockConstraint" = type { i32, i16, i8 }
%class.anon = type { i8 }
%"class.llvm::raw_ostream" = type { ptr, i32, ptr, ptr, ptr, i8, i32 }

@.str = private unnamed_addr constant [2 x i8] c"{\00", align 1
@.str.1 = private unnamed_addr constant [3 x i8] c", \00", align 1
@.str.2 = private unnamed_addr constant [8 x i8] c"changes\00", align 1
@.str.3 = private unnamed_addr constant [10 x i8] c"no change\00", align 1
@.str.4 = private unnamed_addr constant [2 x i8] c"}\00", align 1
@.str.8 = private unnamed_addr constant [9 x i8] c"DontCare\00", align 1
@.str.9 = private unnamed_addr constant [8 x i8] c"PrefReg\00", align 1
@.str.10 = private unnamed_addr constant [10 x i8] c"PrefSpill\00", align 1
@.str.11 = private unnamed_addr constant [9 x i8] c"PrefBoth\00", align 1
@.str.12 = private unnamed_addr constant [10 x i8] c"MustSpill\00", align 1

; Function Attrs: mustprogress nounwind uwtable
define linkonce_odr hidden noundef i64 @_ZNSt11char_traitsIcE6lengthEPKc(ptr noundef %0) #0 comdat align 2 {
  %2 = alloca ptr, align 8
  store ptr %0, ptr %2, align 8
  %3 = load ptr, ptr %2, align 8
  %4 = call i64 @strlen(ptr noundef %3) #11
  ret i64 %4
}

; Function Attrs: mustprogress nounwind uwtable
define linkonce_odr hidden noundef ptr @_ZNK4llvm9StringRef4dataEv(ptr noundef nonnull align 8 dereferenceable(16) %0) #0 comdat align 2 {
  %2 = alloca ptr, align 8
  store ptr %0, ptr %2, align 8
  %3 = load ptr, ptr %2, align 8
  %4 = getelementptr inbounds nuw %"class.llvm::StringRef", ptr %3, i32 0, i32 0
  %5 = load ptr, ptr %4, align 8
  ret ptr %5
}

; Function Attrs: mustprogress nounwind uwtable
define linkonce_odr hidden noundef i64 @_ZNK4llvm9StringRef4sizeEv(ptr noundef nonnull align 8 dereferenceable(16) %0) #0 comdat align 2 {
  %2 = alloca ptr, align 8
  store ptr %0, ptr %2, align 8
  %3 = load ptr, ptr %2, align 8
  %4 = getelementptr inbounds nuw %"class.llvm::StringRef", ptr %3, i32 0, i32 1
  %5 = load i64, ptr %4, align 8
  ret i64 %5
}

; Function Attrs: mustprogress nounwind uwtable
define linkonce_odr hidden void @_ZN4llvm9StringRefC2EPKc(ptr noundef nonnull align 8 dereferenceable(16) %0, ptr noundef %1) unnamed_addr #0 comdat align 2 {
  %3 = alloca ptr, align 8
  %4 = alloca ptr, align 8
  store ptr %0, ptr %3, align 8
  store ptr %1, ptr %4, align 8
  %5 = load ptr, ptr %3, align 8
  %6 = getelementptr inbounds nuw %"class.llvm::StringRef", ptr %5, i32 0, i32 0
  %7 = load ptr, ptr %4, align 8
  store ptr %7, ptr %6, align 8
  %8 = getelementptr inbounds nuw %"class.llvm::StringRef", ptr %5, i32 0, i32 1
  %9 = load ptr, ptr %4, align 8
  %10 = icmp ne ptr %9, null
  br i1 %10, label %11, label %14

11:                                               ; preds = %2
  %12 = load ptr, ptr %4, align 8
  %13 = call noundef i64 @_ZNSt11char_traitsIcE6lengthEPKc(ptr noundef %12)
  br label %15

14:                                               ; preds = %2
  br label %15

15:                                               ; preds = %14, %11
  %16 = phi i64 [ %13, %11 ], [ 0, %14 ]
  store i64 %16, ptr %8, align 8
  ret void
}

; Function Attrs: mustprogress nounwind uwtable
define linkonce_odr hidden noundef nonnull align 8 dereferenceable(48) ptr @_ZN4llvm11raw_ostreamlsENS_9StringRefE(ptr noundef nonnull align 8 dereferenceable(48) %0, ptr %1, i64 %2) #0 comdat align 2 {
  %4 = alloca ptr, align 8
  %5 = alloca %"class.llvm::StringRef", align 8
  %6 = alloca ptr, align 8
  %7 = alloca i64, align 8
  %8 = getelementptr inbounds nuw { ptr, i64 }, ptr %5, i32 0, i32 0
  store ptr %1, ptr %8, align 8
  %9 = getelementptr inbounds nuw { ptr, i64 }, ptr %5, i32 0, i32 1
  store i64 %2, ptr %9, align 8
  store ptr %0, ptr %6, align 8
  %10 = load ptr, ptr %6, align 8
  %11 = call noundef i64 @_ZNK4llvm9StringRef4sizeEv(ptr noundef nonnull align 8 dereferenceable(16) %5)
  store i64 %11, ptr %7, align 8
  %12 = load i64, ptr %7, align 8
  %13 = getelementptr inbounds nuw %"class.llvm::raw_ostream", ptr %10, i32 0, i32 3
  %14 = load ptr, ptr %13, align 8
  %15 = getelementptr inbounds nuw %"class.llvm::raw_ostream", ptr %10, i32 0, i32 4
  %16 = load ptr, ptr %15, align 8
  %17 = ptrtoint ptr %14 to i64
  %18 = ptrtoint ptr %16 to i64
  %19 = sub i64 %17, %18
  %20 = icmp ugt i64 %12, %19
  br i1 %20, label %21, label %25

21:                                               ; preds = %3
  %22 = call noundef ptr @_ZNK4llvm9StringRef4dataEv(ptr noundef nonnull align 8 dereferenceable(16) %5)
  %23 = load i64, ptr %7, align 8
  %24 = call noundef nonnull align 8 dereferenceable(48) ptr @_ZN4llvm11raw_ostream5writeEPKcm(ptr noundef nonnull align 8 dereferenceable(48) %10, ptr noundef %22, i64 noundef %23)
  store ptr %24, ptr %4, align 8
  br label %38

25:                                               ; preds = %3
  %26 = load i64, ptr %7, align 8
  %27 = icmp ne i64 %26, 0
  br i1 %27, label %28, label %37

28:                                               ; preds = %25
  %29 = getelementptr inbounds nuw %"class.llvm::raw_ostream", ptr %10, i32 0, i32 4
  %30 = load ptr, ptr %29, align 8
  %31 = call noundef ptr @_ZNK4llvm9StringRef4dataEv(ptr noundef nonnull align 8 dereferenceable(16) %5)
  %32 = load i64, ptr %7, align 8
  call void @llvm.memcpy.p0.p0.i64(ptr align 1 %30, ptr align 1 %31, i64 %32, i1 false)
  %33 = load i64, ptr %7, align 8
  %34 = getelementptr inbounds nuw %"class.llvm::raw_ostream", ptr %10, i32 0, i32 4
  %35 = load ptr, ptr %34, align 8
  %36 = getelementptr inbounds i8, ptr %35, i64 %33
  store ptr %36, ptr %34, align 8
  br label %37

37:                                               ; preds = %28, %25
  store ptr %10, ptr %4, align 8
  br label %38

38:                                               ; preds = %37, %21
  %39 = load ptr, ptr %4, align 8
  ret ptr %39
}

; Function Attrs: mustprogress nounwind uwtable
define internal { ptr, i64 } @"_ZZNK4llvm14SpillPlacement15BlockConstraint5printERNS_11raw_ostreamEENK3$_0clENS0_16BorderConstraintE"(ptr noundef nonnull align 1 dereferenceable(1) %0, i32 noundef %1) #0 align 2 {
  %3 = alloca %"class.llvm::StringRef", align 8
  %4 = alloca ptr, align 8
  %5 = alloca i32, align 4
  store ptr %0, ptr %4, align 8
  store i32 %1, ptr %5, align 4
  %6 = load i32, ptr %5, align 4
  switch i32 %6, label %12 [
    i32 0, label %7
    i32 1, label %8
    i32 2, label %9
    i32 3, label %10
    i32 4, label %11
  ]

7:                                                ; preds = %2
  call void @_ZN4llvm9StringRefC2EPKc(ptr noundef nonnull align 8 dereferenceable(16) %3, ptr noundef @.str.8)
  br label %13

8:                                                ; preds = %2
  call void @_ZN4llvm9StringRefC2EPKc(ptr noundef nonnull align 8 dereferenceable(16) %3, ptr noundef @.str.9)
  br label %13

9:                                                ; preds = %2
  call void @_ZN4llvm9StringRefC2EPKc(ptr noundef nonnull align 8 dereferenceable(16) %3, ptr noundef @.str.10)
  br label %13

10:                                               ; preds = %2
  call void @_ZN4llvm9StringRefC2EPKc(ptr noundef nonnull align 8 dereferenceable(16) %3, ptr noundef @.str.11)
  br label %13

11:                                               ; preds = %2
  call void @_ZN4llvm9StringRefC2EPKc(ptr noundef nonnull align 8 dereferenceable(16) %3, ptr noundef @.str.12)
  br label %13

12:                                               ; preds = %2
  unreachable

13:                                               ; preds = %11, %10, %9, %8, %7
  %14 = load { ptr, i64 }, ptr %3, align 8
  ret { ptr, i64 } %14
}

; Function Attrs: mustprogress nounwind uwtable
define linkonce_odr hidden noundef nonnull align 8 dereferenceable(48) ptr @_ZN4llvm11raw_ostreamlsEj(ptr noundef nonnull align 8 dereferenceable(48) %0, i32 noundef %1) #0 comdat align 2 {
  %3 = alloca ptr, align 8
  %4 = alloca i32, align 4
  store ptr %0, ptr %3, align 8
  store i32 %1, ptr %4, align 4
  %5 = load ptr, ptr %3, align 8
  %6 = load i32, ptr %4, align 4
  %7 = zext i32 %6 to i64
  %8 = call noundef nonnull align 8 dereferenceable(48) ptr @_ZN4llvm11raw_ostreamlsEm(ptr noundef nonnull align 8 dereferenceable(48) %5, i64 noundef %7)
  ret ptr %8
}

; Function Attrs: mustprogress nounwind uwtable
define linkonce_odr hidden noundef nonnull align 8 dereferenceable(48) ptr @_ZN4llvm11raw_ostreamlsEPKc(ptr noundef nonnull align 8 dereferenceable(48) %0, ptr noundef %1) #0 comdat align 2 {
  %3 = alloca ptr, align 8
  %4 = alloca ptr, align 8
  %5 = alloca %"class.llvm::StringRef", align 8
  store ptr %0, ptr %3, align 8
  store ptr %1, ptr %4, align 8
  %6 = load ptr, ptr %3, align 8
  %7 = load ptr, ptr %4, align 8
  call void @_ZN4llvm9StringRefC2EPKc(ptr noundef nonnull align 8 dereferenceable(16) %5, ptr noundef %7)
  %8 = getelementptr inbounds nuw { ptr, i64 }, ptr %5, i32 0, i32 0
  %9 = load ptr, ptr %8, align 8
  %10 = getelementptr inbounds nuw { ptr, i64 }, ptr %5, i32 0, i32 1
  %11 = load i64, ptr %10, align 8
  %12 = call noundef nonnull align 8 dereferenceable(48) ptr @_ZN4llvm11raw_ostreamlsENS_9StringRefE(ptr noundef nonnull align 8 dereferenceable(48) %6, ptr %9, i64 %11)
  ret ptr %12
}

; Function Attrs: mustprogress nounwind uwtable
define dso_local void @_ZNK4llvm14SpillPlacement15BlockConstraint5printERNS_11raw_ostreamE(ptr noundef nonnull align 4 dereferenceable(8) %0, ptr noundef nonnull align 8 dereferenceable(48) %1) #0 align 2 {
  %3 = alloca ptr, align 8
  %4 = alloca ptr, align 8
  %5 = alloca %class.anon, align 1
  %6 = alloca %"class.llvm::StringRef", align 8
  %7 = alloca %"class.llvm::StringRef", align 8
  store ptr %0, ptr %3, align 8
  store ptr %1, ptr %4, align 8
  %8 = load ptr, ptr %3, align 8
  %9 = call noundef nonnull align 8 dereferenceable(48) ptr @_ZN4llvm4dbgsEv()
  %10 = call noundef nonnull align 8 dereferenceable(48) ptr @_ZN4llvm11raw_ostreamlsEPKc(ptr noundef nonnull align 8 dereferenceable(48) %9, ptr noundef @.str)
  %11 = getelementptr inbounds nuw %"struct.llvm::SpillPlacement::BlockConstraint", ptr %8, i32 0, i32 0
  %12 = load i32, ptr %11, align 4
  %13 = call noundef nonnull align 8 dereferenceable(48) ptr @_ZN4llvm11raw_ostreamlsEj(ptr noundef nonnull align 8 dereferenceable(48) %10, i32 noundef %12)
  %14 = call noundef nonnull align 8 dereferenceable(48) ptr @_ZN4llvm11raw_ostreamlsEPKc(ptr noundef nonnull align 8 dereferenceable(48) %13, ptr noundef @.str.1)
  %15 = getelementptr inbounds nuw %"struct.llvm::SpillPlacement::BlockConstraint", ptr %8, i32 0, i32 1
  %16 = load i16, ptr %15, align 4
  %17 = and i16 %16, 255
  %18 = zext i16 %17 to i32
  %19 = call { ptr, i64 } @"_ZZNK4llvm14SpillPlacement15BlockConstraint5printERNS_11raw_ostreamEENK3$_0clENS0_16BorderConstraintE"(ptr noundef nonnull align 1 dereferenceable(1) %5, i32 noundef %18)
  %20 = getelementptr inbounds nuw { ptr, i64 }, ptr %6, i32 0, i32 0
  %21 = extractvalue { ptr, i64 } %19, 0
  store ptr %21, ptr %20, align 8
  %22 = getelementptr inbounds nuw { ptr, i64 }, ptr %6, i32 0, i32 1
  %23 = extractvalue { ptr, i64 } %19, 1
  store i64 %23, ptr %22, align 8
  %24 = getelementptr inbounds nuw { ptr, i64 }, ptr %6, i32 0, i32 0
  %25 = load ptr, ptr %24, align 8
  %26 = getelementptr inbounds nuw { ptr, i64 }, ptr %6, i32 0, i32 1
  %27 = load i64, ptr %26, align 8
  %28 = call noundef nonnull align 8 dereferenceable(48) ptr @_ZN4llvm11raw_ostreamlsENS_9StringRefE(ptr noundef nonnull align 8 dereferenceable(48) %14, ptr %25, i64 %27)
  %29 = call noundef nonnull align 8 dereferenceable(48) ptr @_ZN4llvm11raw_ostreamlsEPKc(ptr noundef nonnull align 8 dereferenceable(48) %28, ptr noundef @.str.1)
  %30 = getelementptr inbounds nuw %"struct.llvm::SpillPlacement::BlockConstraint", ptr %8, i32 0, i32 1
  %31 = load i16, ptr %30, align 4
  %32 = lshr i16 %31, 8
  %33 = zext i16 %32 to i32
  %34 = call { ptr, i64 } @"_ZZNK4llvm14SpillPlacement15BlockConstraint5printERNS_11raw_ostreamEENK3$_0clENS0_16BorderConstraintE"(ptr noundef nonnull align 1 dereferenceable(1) %5, i32 noundef %33)
  %35 = getelementptr inbounds nuw { ptr, i64 }, ptr %7, i32 0, i32 0
  %36 = extractvalue { ptr, i64 } %34, 0
  store ptr %36, ptr %35, align 8
  %37 = getelementptr inbounds nuw { ptr, i64 }, ptr %7, i32 0, i32 1
  %38 = extractvalue { ptr, i64 } %34, 1
  store i64 %38, ptr %37, align 8
  %39 = getelementptr inbounds nuw { ptr, i64 }, ptr %7, i32 0, i32 0
  %40 = load ptr, ptr %39, align 8
  %41 = getelementptr inbounds nuw { ptr, i64 }, ptr %7, i32 0, i32 1
  %42 = load i64, ptr %41, align 8
  %43 = call noundef nonnull align 8 dereferenceable(48) ptr @_ZN4llvm11raw_ostreamlsENS_9StringRefE(ptr noundef nonnull align 8 dereferenceable(48) %29, ptr %40, i64 %42)
  %44 = call noundef nonnull align 8 dereferenceable(48) ptr @_ZN4llvm11raw_ostreamlsEPKc(ptr noundef nonnull align 8 dereferenceable(48) %43, ptr noundef @.str.1)
  %45 = getelementptr inbounds nuw %"struct.llvm::SpillPlacement::BlockConstraint", ptr %8, i32 0, i32 2
  %46 = load i8, ptr %45, align 2
  %47 = trunc i8 %46 to i1
  %48 = select i1 %47, ptr @.str.2, ptr @.str.3
  %49 = call noundef nonnull align 8 dereferenceable(48) ptr @_ZN4llvm11raw_ostreamlsEPKc(ptr noundef nonnull align 8 dereferenceable(48) %44, ptr noundef %48)
  %50 = call noundef nonnull align 8 dereferenceable(48) ptr @_ZN4llvm11raw_ostreamlsEPKc(ptr noundef nonnull align 8 dereferenceable(48) %49, ptr noundef @.str.4)
  ret void
}